target datalayout = "e-m:e-p270:32:32-p271:32:32-p272:64:64-i64:64-i128:128-f80:128-n8:16:32:64-S128"
target triple = "x86_64-pc-linux-gnu"

%struct._radius_vendor_info_t = type { ptr, i32, ptr, i32, i32, i32, i8 }
%struct._value_string = type { i32, ptr }
%struct.hfett_t = type { ptr, ptr, ptr }

; Function Attrs: null_pointer_is_valid sspstrong uwtable
define internal void @register_vendors(ptr noundef %0, ptr noundef %1, ptr noundef %2) #0 {
  %4 = alloca ptr, align 8
  %5 = alloca ptr, align 8
  %6 = alloca ptr, align 8
  %7 = alloca ptr, align 8
  %8 = alloca ptr, align 8
  %9 = alloca %struct._value_string, align 8
  %10 = alloca ptr, align 8
  store ptr %0, ptr %4, align 8
  store ptr %1, ptr %5, align 8
  store ptr %2, ptr %6, align 8
  call void @llvm.lifetime.start.p0(i64 8, ptr %7) #17
  %11 = load ptr, ptr %5, align 8
  store ptr %11, ptr %7, align 8
  call void @llvm.lifetime.start.p0(i64 8, ptr %8) #17
  %12 = load ptr, ptr %6, align 8
  store ptr %12, ptr %8, align 8
  call void @llvm.lifetime.start.p0(i64 16, ptr %9) #17
  call void @llvm.lifetime.start.p0(i64 8, ptr %10) #17
  %13 = load ptr, ptr %7, align 8
  %14 = getelementptr inbounds nuw %struct._radius_vendor_info_t, ptr %13, i32 0, i32 3
  store ptr %14, ptr %10, align 8
  %15 = load ptr, ptr %7, align 8
  %16 = getelementptr inbounds nuw %struct._radius_vendor_info_t, ptr %15, i32 0, i32 1
  %17 = load i32, ptr %16, align 8
  %18 = getelementptr inbounds nuw %struct._value_string, ptr %9, i32 0, i32 0
  store i32 %17, ptr %18, align 8
  %19 = load ptr, ptr %7, align 8
  %20 = getelementptr inbounds nuw %struct._radius_vendor_info_t, ptr %19, i32 0, i32 0
  %21 = load ptr, ptr %20, align 8
  %22 = getelementptr inbounds nuw %struct._value_string, ptr %9, i32 0, i32 1
  store ptr %21, ptr %22, align 8
  %23 = load ptr, ptr %8, align 8
  %24 = getelementptr inbounds nuw %struct.hfett_t, ptr %23, i32 0, i32 2
  %25 = load ptr, ptr %24, align 8
  call void @wmem_array_append(ptr noundef %25, ptr noundef %9, i32 noundef 1)
  %26 = load ptr, ptr %8, align 8
  %27 = getelementptr inbounds nuw %struct.hfett_t, ptr %26, i32 0, i32 1
  %28 = load ptr, ptr %27, align 8
  call void @wmem_array_append(ptr noundef %28, ptr noundef %10, i32 noundef 1)
  %29 = load ptr, ptr %7, align 8
  %30 = getelementptr inbounds nuw %struct._radius_vendor_info_t, ptr %29, i32 0, i32 2
  %31 = load ptr, ptr %30, align 8
  %32 = load ptr, ptr %8, align 8
  call void @g_hash_table_foreach(ptr noundef %31, ptr noundef @register_attrs, ptr noundef %32)
  call void @llvm.lifetime.end.p0(i64 8, ptr %10) #17
  call void @llvm.lifetime.end.p0(i64 16, ptr %9) #17
  call void @llvm.lifetime.end.p0(i64 8, ptr %8) #17
  call void @llvm.lifetime.end.p0(i64 8, ptr %7) #17
  ret void
}