; Function Attrs: null_pointer_is_valid sspstrong uwtable
define internal void @register_vendors(ptr readnone captures(none) %0, ptr noundef %1, ptr noundef %2) #0 {
  %4 = alloca %struct._value_string, align 8
  %5 = alloca ptr, align 8
  call void @llvm.lifetime.start.p0(i64 16, ptr nonnull %4) #14
  call void @llvm.lifetime.start.p0(i64 8, ptr nonnull %5) #14
  %6 = getelementptr inbounds nuw i8, ptr %1, i64 24
  store ptr %6, ptr %5, align 8
  %7 = getelementptr inbounds nuw i8, ptr %1, i64 8
  %8 = load i32, ptr %7, align 8
  store i32 %8, ptr %4, align 8
  %9 = load ptr, ptr %1, align 8
  %10 = getelementptr inbounds nuw i8, ptr %4, i64 8
  store ptr %9, ptr %10, align 8
  %11 = getelementptr inbounds nuw i8, ptr %2, i64 16
  %12 = load ptr, ptr %11, align 8
  call void @wmem_array_append(ptr noundef %12, ptr noundef nonnull %4, i32 noundef 1)
  %13 = getelementptr inbounds nuw i8, ptr %2, i64 8
  %14 = load ptr, ptr %13, align 8
  call void @wmem_array_append(ptr noundef %14, ptr noundef nonnull %5, i32 noundef 1)
  %15 = getelementptr inbounds nuw i8, ptr %1, i64 16
  %16 = load ptr, ptr %15, align 8
  call void @g_hash_table_foreach(ptr noundef %16, ptr noundef nonnull @register_attrs, ptr noundef %2)
  call void @llvm.lifetime.end.p0(i64 8, ptr nonnull %5) #14
  call void @llvm.lifetime.end.p0(i64 16, ptr nonnull %4) #14
  ret void
}